(dp1
S'humanproteomemap_fetal'
p2
(dp3
S'length'
p4
I512
sS'unique'
p5
I00
sS'sortable'
p6
I18
sS'sql'
p7
S'CHAR(512)'
p8
sS'notnull'
p9
I00
sS'type'
p10
S'string'
p11
ssS'function_weight'
p12
(dp13
g4
I512
sg5
I00
sg6
I9
sg7
S'DOUBLE'
p14
sg9
I00
sg10
S'double'
p15
ssS'gtex'
p16
(dp17
S'sortable'
p18
I16
sS'sql'
p19
S'CHAR(512)'
p20
sS'length'
p21
I512
sS'notnull'
p22
I00
sS'unique'
p23
I00
sS'type'
p24
S'string'
p25
ssS'upload_filename'
p26
(dp27
g4
I512
sg5
I00
sg6
I4
sg7
S'CHAR(512)'
p28
sg9
I00
sg10
g11
ssS'tissue'
p29
(dp30
g18
I9
sg19
S'CHAR(512)'
p31
sg21
I512
sg22
I00
sg23
I00
sg24
g25
ssS'pa_cancer'
p32
(dp33
g18
I11
sg19
S'CHAR(512)'
p34
sg21
I512
sg22
I00
sg23
I00
sg24
g25
ssS'protein_atlas_basal'
p35
(dp36
g4
I512
sg5
I00
sg6
I15
sg7
S'CHAR(512)'
p37
sg9
I00
sg10
g11
ssS'threshold'
p38
(dp39
g4
I512
sg5
I00
sg6
I7
sg7
S'DOUBLE'
p40
sg9
I00
sg10
g15
ssS'protein_atlas_cancer'
p41
(dp42
g4
I512
sg5
I00
sg6
I16
sg7
S'CHAR(512)'
p43
sg9
I00
sg10
g11
ssS'id'
p44
(dp45
g4
I512
sg5
I00
sg6
I1
sg7
S'INTEGER PRIMARY KEY AUTOINCREMENT'
p46
sg9
I00
sg10
S'id'
p47
ssS'expr_db'
p48
(dp49
g4
I512
sg5
I00
sg6
I14
sg7
S'CHAR(512)'
p50
sg9
I00
sg10
g11
ssS'humanproteomemap_adult'
p51
(dp52
g4
I512
sg5
I00
sg6
I17
sg7
S'CHAR(512)'
p53
sg9
I00
sg10
g11
ssS'e_mitab'
p54
(dp55
g18
I17
sg19
S'CHAR(512)'
p56
sg21
I512
sg22
I00
sg23
I00
sg24
g25
ssS'uuid'
p57
(dp58
g4
I512
sg5
I00
sg6
I2
sg7
S'CHAR(512)'
p59
sg9
I00
sg10
g11
ssS'proteomicsdb'
p60
(dp61
g4
I512
sg5
I00
sg6
I20
sg7
S'CHAR(512)'
p62
sg9
I00
sg10
g11
ssS'kegg_weight'
p63
(dp64
g4
I512
sg5
I00
sg6
I12
sg7
S'DOUBLE'
p65
sg9
I00
sg10
g15
ssS'coexpression'
p66
(dp67
g4
I512
sg5
I00
sg6
I6
sg7
S'CHAR(1)'
p68
sg9
I00
sg10
S'boolean'
p69
ssS'e_geod'
p70
(dp71
g18
I15
sg19
S'CHAR(512)'
p72
sg21
I512
sg22
I00
sg23
I00
sg24
g25
ssS'pa'
p73
(dp74
g18
I10
sg19
S'CHAR(512)'
p75
sg21
I512
sg22
I00
sg23
I00
sg24
g25
ssS'filter_net'
p76
(dp77
S'sortable'
p78
I6
sS'sql'
p79
S'CHAR(512)'
p80
sS'length'
p81
I512
sS'notnull'
p82
I00
sS'unique'
p83
I00
sS'type'
p84
S'string'
p85
ssS'graph_db'
p86
(dp87
g4
I512
sg5
I00
sg6
I5
sg7
S'CHAR(512)'
p88
sg9
I00
sg10
g11
ssS'e_mitab_2836'
p89
(dp90
g18
I12
sg19
S'CHAR(512)'
p91
sg21
I512
sg22
I00
sg23
I00
sg24
g25
ssS'component_weight'
p92
(dp93
g4
I512
sg5
I00
sg6
I8
sg7
S'DOUBLE'
p94
sg9
I00
sg10
g15
ssS'process_weight'
p95
(dp96
g4
I512
sg5
I00
sg6
I10
sg7
S'DOUBLE'
p97
sg9
I00
sg10
g15
ssS'display_net'
p98
(dp99
S'sortable'
p100
I7
sS'sql'
p101
S'CHAR(512)'
p102
sS'length'
p103
I512
sS'notnull'
p104
I00
sS'unique'
p105
I00
sS'type'
p106
S'string'
p107
ssS'db'
p108
(dp109
S'sortable'
p110
I5
sS'sql'
p111
S'CHAR(512)'
p112
sS'length'
p113
I512
sS'notnull'
p114
I00
sS'unique'
p115
I00
sS'type'
p116
S'string'
p117
ssS'peptideatlas'
p118
(dp119
g4
I512
sg5
I00
sg6
I21
sg7
S'CHAR(512)'
p120
sg9
I00
sg10
g11
ssS'background'
p121
(dp122
g4
I512
sg5
I00
sg6
I13
sg7
S'CHAR(512)'
p123
sg9
I00
sg10
g11
ssS'paxdb_integrated'
p124
(dp125
g4
I512
sg5
I00
sg6
I19
sg7
S'CHAR(512)'
p126
sg9
I00
sg10
g11
ssS'upload'
p127
(dp128
g4
I512
sg5
I00
sg6
I3
sg7
S'CHAR(512)'
p129
sg9
I00
sg10
S'upload'
p130
ssS'e_mtab_3358_adult'
p131
(dp132
g18
I14
sg19
S'CHAR(512)'
p133
sg21
I512
sg22
I00
sg23
I00
sg24
g25
ssS'reactome_weight'
p134
(dp135
g4
I512
sg5
I00
sg6
I11
sg7
S'DOUBLE'
p136
sg9
I00
sg10
g15
ssS'e_mtab_3358_fetal'
p137
(dp138
g18
I13
sg19
S'CHAR(512)'
p139
sg21
I512
sg22
I00
sg23
I00
sg24
g25
ss.