(dp1
S'Component_weight'
p2
(dp3
S'length'
p4
I512
sS'unique'
p5
I00
sS'sortable'
p6
I8
sS'sql'
p7
S'DOUBLE'
p8
sS'notnull'
p9
I00
sS'type'
p10
S'double'
p11
ssS'expr_db'
p12
(dp13
g4
I512
sg5
I00
sg6
I14
sg7
S'CHAR(512)'
p14
sg9
I00
sg10
S'string'
p15
ssS'humanproteomemap_adult'
p16
(dp17
g4
I512
sg5
I00
sg6
I17
sg7
S'CHAR(512)'
p18
sg9
I00
sg10
g15
ssS'Process_weight'
p19
(dp20
g4
I512
sg5
I00
sg6
I10
sg7
S'DOUBLE'
p21
sg9
I00
sg10
g11
ssS'uuid'
p22
(dp23
g4
I512
sg5
I00
sg6
I2
sg7
S'CHAR(512)'
p24
sg9
I00
sg10
g15
ssS'Function_weight'
p25
(dp26
g4
I512
sg5
I00
sg6
I9
sg7
S'DOUBLE'
p27
sg9
I00
sg10
g11
ssS'Kegg_weight'
p28
(dp29
g4
I512
sg5
I00
sg6
I12
sg7
S'DOUBLE'
p30
sg9
I00
sg10
g11
ssS'coexpression'
p31
(dp32
g4
I512
sg5
I00
sg6
I6
sg7
S'CHAR(1)'
p33
sg9
I00
sg10
S'boolean'
p34
ssS'upload'
p35
(dp36
g4
I512
sg5
I00
sg6
I3
sg7
S'CHAR(512)'
p37
sg9
I00
sg10
g35
ssS'Reactome_weight'
p38
(dp39
g4
I512
sg5
I00
sg6
I11
sg7
S'DOUBLE'
p40
sg9
I00
sg10
g11
ssS'protein_atlas_basal'
p41
(dp42
g4
I512
sg5
I00
sg6
I15
sg7
S'CHAR(512)'
p43
sg9
I00
sg10
g15
ssS'upload_filename'
p44
(dp45
g4
I512
sg5
I00
sg6
I4
sg7
S'CHAR(512)'
p46
sg9
I00
sg10
g15
ssS'proteomicsdb'
p47
(dp48
g4
I512
sg5
I00
sg6
I20
sg7
S'CHAR(512)'
p49
sg9
I00
sg10
g15
ssS'peptideatlas'
p50
(dp51
g4
I512
sg5
I00
sg6
I21
sg7
S'CHAR(512)'
p52
sg9
I00
sg10
g15
ssS'graph_db'
p53
(dp54
g4
I512
sg5
I00
sg6
I5
sg7
S'CHAR(512)'
p55
sg9
I00
sg10
g15
ssS'background'
p56
(dp57
g4
I512
sg5
I00
sg6
I13
sg7
S'CHAR(512)'
p58
sg9
I00
sg10
g15
ssS'humanproteomemap_fetal'
p59
(dp60
g4
I512
sg5
I00
sg6
I18
sg7
S'CHAR(512)'
p61
sg9
I00
sg10
g15
ssS'threshold'
p62
(dp63
g4
I512
sg5
I00
sg6
I7
sg7
S'DOUBLE'
p64
sg9
I00
sg10
g11
ssS'protein_atlas_cancer'
p65
(dp66
g4
I512
sg5
I00
sg6
I16
sg7
S'CHAR(512)'
p67
sg9
I00
sg10
g15
ssS'id'
p68
(dp69
g4
I512
sg5
I00
sg6
I1
sg7
S'INTEGER PRIMARY KEY AUTOINCREMENT'
p70
sg9
I00
sg10
g68
ssS'PaxDb_integrated'
p71
(dp72
g4
I512
sg5
I00
sg6
I19
sg7
S'CHAR(512)'
p73
sg9
I00
sg10
g15
ss.