(dp1
S'score_1'
p2
(dp3
S'sortable'
p4
I5
sS'sql'
p5
S'CHAR(512)'
p6
sS'length'
p7
I512
sS'notnull'
p8
I00
sS'unique'
p9
I00
sS'type'
p10
S'string'
p11
ssS'score_2'
p12
(dp13
g4
I6
sg5
S'CHAR(512)'
p14
sg7
I512
sg8
I00
sg9
I00
sg10
g11
ssS'filtering'
p15
(dp16
S'sortable'
p17
I6
sS'sql'
p18
S'TEXT'
p19
sS'length'
p20
I32768
sS'notnull'
p21
I00
sS'unique'
p22
I00
sS'type'
p23
S'text'
p24
ssS'function_weight'
p25
(dp26
S'length'
p27
I512
sS'unique'
p28
I00
sS'sortable'
p29
I17
sS'sql'
p30
S'CHAR(512)'
p31
sS'notnull'
p32
I00
sS'type'
p33
S'string'
p34
ssS'gtex'
p35
(dp36
S'sortable'
p37
I14
sS'sql'
p38
S'CHAR(512)'
p39
sS'length'
p40
I512
sS'notnull'
p41
I00
sS'unique'
p42
I00
sS'type'
p43
S'string'
p44
ssS'human_proteome_map_adult'
p45
(dp46
g27
I512
sg28
I00
sg29
I7
sg30
S'CHAR(512)'
p47
sg32
I00
sg33
g34
ssS'topology_ranking'
p48
(dp49
S'sortable'
p50
I6
sS'sql'
p51
S'TEXT'
p52
sS'length'
p53
I32768
sS'notnull'
p54
I00
sS'unique'
p55
I00
sS'type'
p56
S'text'
p57
ssS'show_advanced_options'
p58
(dp59
g27
I512
sg28
I00
sg29
I14
sg30
S'CHAR(1)'
p60
sg32
I00
sg33
S'boolean'
p61
ssS'score_3'
p62
(dp63
g4
I7
sg5
S'CHAR(512)'
p64
sg7
I512
sg8
I00
sg9
I00
sg10
g11
ssS'pa_cancer'
p65
(dp66
g27
I512
sg28
I00
sg29
I6
sg30
S'CHAR(512)'
p67
sg32
I00
sg33
g34
ssS'protein_atlas_basal'
p68
(dp69
S'sortable'
p70
I5
sS'sql'
p71
S'CHAR(512)'
p72
sS'length'
p73
I512
sS'notnull'
p74
I00
sS'unique'
p75
I00
sS'type'
p76
S'string'
p77
ssS'threshold'
p78
(dp79
g27
I512
sg28
I00
sg29
I15
sg30
S'DOUBLE'
p80
sg32
I00
sg33
S'float'
p81
ssS'process_weight'
p82
(dp83
g27
I512
sg28
I00
sg29
I18
sg30
S'CHAR(512)'
p84
sg32
I00
sg33
g34
ssS'filter_classifier'
p85
(dp86
S'sortable'
p87
I6
sS'sql'
p88
S'TEXT'
p89
sS'length'
p90
I32768
sS'notnull'
p91
I00
sS'unique'
p92
I00
sS'type'
p93
S'text'
p94
ssS'id'
p95
(dp96
g27
I512
sg28
I00
sg29
I1
sg30
S'INTEGER PRIMARY KEY AUTOINCREMENT'
p97
sg32
I00
sg33
S'id'
p98
ssS'expr_db'
p99
(dp100
g27
I512
sg28
I00
sg29
I4
sg30
S'CHAR(512)'
p101
sg32
I00
sg33
g34
ssS'e_mitab'
p102
(dp103
g37
I13
sg38
S'CHAR(512)'
p104
sg40
I512
sg41
I00
sg42
I00
sg43
g44
ssS'score'
p105
(dp106
g50
I5
sg51
S'CHAR(512)'
p107
sg53
I512
sg54
I00
sg55
I00
sg56
S'string'
p108
ssS'proteomicsdb'
p109
(dp110
g27
I512
sg28
I00
sg29
I10
sg30
S'CHAR(512)'
p111
sg32
I00
sg33
g34
ssS'kegg_weight'
p112
(dp113
g27
I512
sg28
I00
sg29
I20
sg30
S'CHAR(512)'
p114
sg32
I00
sg33
g34
ssS'coexpression'
p115
(dp116
g27
I512
sg28
I00
sg29
I13
sg30
S'CHAR(512)'
p117
sg32
I00
sg33
g34
ssS'e_geod'
p118
(dp119
g37
I12
sg38
S'CHAR(512)'
p120
sg40
I512
sg41
I00
sg42
I00
sg43
g44
ssS'pa'
p121
(dp122
g37
I7
sg38
S'CHAR(512)'
p123
sg40
I512
sg41
I00
sg42
I00
sg43
g44
ssS'graph_db'
p124
(dp125
g27
I512
sg28
I00
sg29
I3
sg30
S'CHAR(512)'
p126
sg32
I00
sg33
g34
ssS'e_mitab_2836'
p127
(dp128
g37
I9
sg38
S'CHAR(512)'
p129
sg40
I512
sg41
I00
sg42
I00
sg43
g44
ssS'component_weight'
p130
(dp131
g27
I512
sg28
I00
sg29
I16
sg30
S'CHAR(512)'
p132
sg32
I00
sg33
g34
ssS'protein_atlas_cancer'
p133
(dp134
g70
I6
sg71
S'CHAR(512)'
p135
sg73
I512
sg74
I00
sg75
I00
sg76
g77
ssS'human_proteome_map_fetal'
p136
(dp137
g27
I512
sg28
I00
sg29
I8
sg30
S'CHAR(512)'
p138
sg32
I00
sg33
g34
ssS'peptideatlas'
p139
(dp140
g27
I512
sg28
I00
sg29
I11
sg30
S'CHAR(512)'
p141
sg32
I00
sg33
g34
ssS'background'
p142
(dp143
g27
I512
sg28
I00
sg29
I12
sg30
S'CHAR(512)'
p144
sg32
I00
sg33
g34
ssS'paxdb_integrated'
p145
(dp146
g27
I512
sg28
I00
sg29
I9
sg30
S'CHAR(512)'
p147
sg32
I00
sg33
g34
ssS'upload'
p148
(dp149
g27
I512
sg28
I00
sg29
I2
sg30
S'CHAR(512)'
p150
sg32
I00
sg33
S'upload'
p151
ssS'e_mtab_3358_adult'
p152
(dp153
g37
I10
sg38
S'CHAR(512)'
p154
sg40
I512
sg41
I00
sg42
I00
sg43
g44
ssS'reactome_weight'
p155
(dp156
g27
I512
sg28
I00
sg29
I19
sg30
S'CHAR(512)'
p157
sg32
I00
sg33
g34
ssS'tissue'
p158
(dp159
g37
I6
sg38
S'CHAR(512)'
p160
sg40
I512
sg41
I00
sg42
I00
sg43
g44
ssS'pa_basal'
p161
(dp162
g27
I512
sg28
I00
sg29
I5
sg30
S'CHAR(512)'
p163
sg32
I00
sg33
g34
ssS'e_mtab_3358_fetal'
p164
(dp165
g37
I11
sg38
S'CHAR(512)'
p166
sg40
I512
sg41
I00
sg42
I00
sg43
g44
ss.