(dp1
S'score_1'
p2
(dp3
S'sortable'
p4
I5
sS'sql'
p5
S'CHAR(512)'
p6
sS'length'
p7
I512
sS'notnull'
p8
I00
sS'unique'
p9
I00
sS'type'
p10
S'string'
p11
ssS'score_2'
p12
(dp13
g4
I6
sg5
S'CHAR(512)'
p14
sg7
I512
sg8
I00
sg9
I00
sg10
g11
ssS'filtering'
p15
(dp16
S'sortable'
p17
I6
sS'sql'
p18
S'TEXT'
p19
sS'length'
p20
I32768
sS'notnull'
p21
I00
sS'unique'
p22
I00
sS'type'
p23
S'text'
p24
ssS'pa'
p25
(dp26
S'sortable'
p27
I7
sS'sql'
p28
S'CHAR(512)'
p29
sS'length'
p30
I512
sS'notnull'
p31
I00
sS'unique'
p32
I00
sS'type'
p33
S'string'
p34
ssS'function_weight'
p35
(dp36
S'length'
p37
I512
sS'unique'
p38
I00
sS'sortable'
p39
I17
sS'sql'
p40
S'CHAR(512)'
p41
sS'notnull'
p42
I00
sS'type'
p43
S'string'
p44
ssS'gtex'
p45
(dp46
g27
I14
sg28
S'CHAR(512)'
p47
sg30
I512
sg31
I00
sg32
I00
sg33
g34
ssS'upload'
p48
(dp49
g37
I512
sg38
I00
sg39
I2
sg40
S'CHAR(512)'
p50
sg42
I00
sg43
S'upload'
p51
ssS'topology_ranking'
p52
(dp53
S'sortable'
p54
I6
sS'sql'
p55
S'TEXT'
p56
sS'length'
p57
I32768
sS'notnull'
p58
I00
sS'unique'
p59
I00
sS'type'
p60
S'text'
p61
ssS'show_advanced_options'
p62
(dp63
g37
I512
sg38
I00
sg39
I14
sg40
S'CHAR(1)'
p64
sg42
I00
sg43
S'boolean'
p65
ssS'score_3'
p66
(dp67
g4
I7
sg5
S'CHAR(512)'
p68
sg7
I512
sg8
I00
sg9
I00
sg10
g11
ssS'pa_cancer'
p69
(dp70
g37
I512
sg38
I00
sg39
I6
sg40
S'CHAR(512)'
p71
sg42
I00
sg43
g44
ssS'protein_atlas_basal'
p72
(dp73
S'sortable'
p74
I5
sS'sql'
p75
S'CHAR(512)'
p76
sS'length'
p77
I512
sS'notnull'
p78
I00
sS'unique'
p79
I00
sS'type'
p80
S'string'
p81
ssS'threshold'
p82
(dp83
g37
I512
sg38
I00
sg39
I15
sg40
S'DOUBLE'
p84
sg42
I00
sg43
S'float'
p85
ssS'protein_atlas_cancer'
p86
(dp87
g74
I6
sg75
S'CHAR(512)'
p88
sg77
I512
sg78
I00
sg79
I00
sg80
g81
ssS'e_geod'
p89
(dp90
g27
I12
sg28
S'CHAR(512)'
p91
sg30
I512
sg31
I00
sg32
I00
sg33
g34
ssS'id'
p92
(dp93
g37
I512
sg38
I00
sg39
I1
sg40
S'INTEGER PRIMARY KEY AUTOINCREMENT'
p94
sg42
I00
sg43
S'id'
p95
ssS'expr_db'
p96
(dp97
g37
I512
sg38
I00
sg39
I4
sg40
S'CHAR(512)'
p98
sg42
I00
sg43
g44
ssS'e_mitab'
p99
(dp100
g27
I13
sg28
S'CHAR(512)'
p101
sg30
I512
sg31
I00
sg32
I00
sg33
g34
ssS'proteomicsdb'
p102
(dp103
g37
I512
sg38
I00
sg39
I10
sg40
S'CHAR(512)'
p104
sg42
I00
sg43
g44
ssS'kegg_weight'
p105
(dp106
g37
I512
sg38
I00
sg39
I20
sg40
S'CHAR(512)'
p107
sg42
I00
sg43
g44
ssS'coexpression'
p108
(dp109
g37
I512
sg38
I00
sg39
I13
sg40
S'CHAR(512)'
p110
sg42
I00
sg43
g44
ssS'filter_classifier'
p111
(dp112
S'sortable'
p113
I6
sS'sql'
p114
S'TEXT'
p115
sS'length'
p116
I32768
sS'notnull'
p117
I00
sS'unique'
p118
I00
sS'type'
p119
S'text'
p120
ssS'score'
p121
(dp122
g54
I5
sg55
S'CHAR(512)'
p123
sg57
I512
sg58
I00
sg59
I00
sg60
S'string'
p124
ssS'graph_db'
p125
(dp126
g37
I512
sg38
I00
sg39
I3
sg40
S'CHAR(512)'
p127
sg42
I00
sg43
g44
ssS'e_mitab_2836'
p128
(dp129
g27
I9
sg28
S'CHAR(512)'
p130
sg30
I512
sg31
I00
sg32
I00
sg33
g34
ssS'component_weight'
p131
(dp132
g37
I512
sg38
I00
sg39
I16
sg40
S'CHAR(512)'
p133
sg42
I00
sg43
g44
ssS'process_weight'
p134
(dp135
g37
I512
sg38
I00
sg39
I18
sg40
S'CHAR(512)'
p136
sg42
I00
sg43
g44
ssS'human_proteome_map_fetal'
p137
(dp138
g37
I512
sg38
I00
sg39
I8
sg40
S'CHAR(512)'
p139
sg42
I00
sg43
g44
ssS'peptideatlas'
p140
(dp141
g37
I512
sg38
I00
sg39
I11
sg40
S'CHAR(512)'
p142
sg42
I00
sg43
g44
ssS'background'
p143
(dp144
g37
I512
sg38
I00
sg39
I12
sg40
S'CHAR(512)'
p145
sg42
I00
sg43
g44
ssS'paxdb_integrated'
p146
(dp147
g37
I512
sg38
I00
sg39
I9
sg40
S'CHAR(512)'
p148
sg42
I00
sg43
g44
ssS'human_proteome_map_adult'
p149
(dp150
g37
I512
sg38
I00
sg39
I7
sg40
S'CHAR(512)'
p151
sg42
I00
sg43
g44
ssS'e_mtab_3358_adult'
p152
(dp153
g27
I10
sg28
S'CHAR(512)'
p154
sg30
I512
sg31
I00
sg32
I00
sg33
g34
ssS'reactome_weight'
p155
(dp156
g37
I512
sg38
I00
sg39
I19
sg40
S'CHAR(512)'
p157
sg42
I00
sg43
g44
ssS'tissue'
p158
(dp159
g27
I6
sg28
S'CHAR(512)'
p160
sg30
I512
sg31
I00
sg32
I00
sg33
g34
ssS'pa_basal'
p161
(dp162
g37
I512
sg38
I00
sg39
I5
sg40
S'CHAR(512)'
p163
sg42
I00
sg43
g44
ssS'e_mtab_3358_fetal'
p164
(dp165
g27
I11
sg28
S'CHAR(512)'
p166
sg30
I512
sg31
I00
sg32
I00
sg33
g34
ss.